; Function Attrs: nounwind uwtable
define hidden ptr @_mi_page_malloc_zeroed(ptr noundef %0, ptr noundef captures(none) %1, i64 noundef %2) local_unnamed_addr #3 {
  %4 = getelementptr inbounds nuw i8, ptr %1, i64 8
  %5 = load ptr, ptr %4, align 8, !tbaa !11
  %6 = icmp eq ptr %5, null
  br i1 %6, label %7, label %9, !prof !17

7:                                                ; preds = %3
  %8 = tail call noalias ptr @_mi_malloc_generic(ptr noundef %0, i64 noundef %2, i1 noundef zeroext true, i64 noundef 0) #19
  br label %_mi_page_malloc_zero.exit

9:                                                ; preds = %3
  %.val.i = load i64, ptr %5, align 8, !tbaa !18
  %10 = inttoptr i64 %.val.i to ptr
  store ptr %10, ptr %4, align 8, !tbaa !11
  %11 = getelementptr inbounds nuw i8, ptr %1, i64 24
  %12 = load i16, ptr %11, align 8, !tbaa !20
  %13 = add i16 %12, 1
  store i16 %13, ptr %11, align 8, !tbaa !20
  %14 = getelementptr inbounds nuw i8, ptr %1, i64 7
  %15 = load i8, ptr %14, align 1
  %16 = and i8 %15, 1
  %.not.i = icmp eq i8 %16, 0
  br i1 %.not.i, label %18, label %17

17:                                               ; preds = %9
  store i64 0, ptr %5, align 8, !tbaa !18
  br label %_mi_page_malloc_zero.exit

18:                                               ; preds = %9
  %19 = getelementptr inbounds nuw i8, ptr %1, i64 32
  %20 = load i64, ptr %19, align 8, !tbaa !21
  call void @llvm.assume(i1 true) [ "align"(ptr %5, i64 8) ]
  tail call void @llvm.memset.p0.i64(ptr nonnull align 8 %5, i8 0, i64 %20, i1 false)
  br label %_mi_page_malloc_zero.exit

_mi_page_malloc_zero.exit:                        ; preds = %7, %17, %18
  %.0.i = phi ptr [ %8, %7 ], [ %5, %17 ], [ %5, %18 ]
  ret ptr %.0.i
}